(lp1
(dp2
S'split_num'
p3
I5
sS'recall'
p4
F0.40903999999999996
sS'precision'
p5
F0.46897365854142209
sS'accuracy'
p6
F0.85944800000000032
sa(dp7
g3
I10
sg4
F0.55701999999999974
sg5
F0.60701760284466411
sg6
F0.89285333333333328
sa(dp8
g3
I15
sg4
F0.55682999999999983
sg5
F0.60880841213453141
sg6
F0.89320399999999978
sa(dp9
g3
I20
sg4
F0.55668999999999991
sg5
F0.61338358974315621
sg6
F0.89410666666666638
sa(dp10
g3
I25
sg4
F0.55642999999999998
sg5
F0.61317175126040302
sg6
F0.89405200000000007
sa(dp11
g3
I30
sg4
F0.55642999999999987
sg5
F0.61334755539617081
sg6
F0.89408666666666692
sa(dp12
g3
I35
sg4
F0.55048999999999981
sg5
F0.61318961682269024
sg6
F0.89376266666666671
sa(dp13
g3
I40
sg4
F0.37506000000000006
sg5
F0.57688776963611654
sg6
F0.87999466666666704
sa(dp14
g3
I45
sg4
F0.2769899999999999
sg5
F0.54042419675465125
sg6
F0.87218933333333348
sa(dp15
g3
I50
sg4
F0.27561999999999987
sg5
F0.54540295714567255
sg6
F0.87278266666666671
sa.