(dp1
I35
(dp2
S'recall'
p3
F0.55053999999999981
sS'precision'
p4
F0.61309327988659246
sS'accuracy'
p5
F0.89374666666666669
ssI5
(dp6
g3
F0.40944000000000003
sg4
F0.46938363632254854
sg5
F0.85954133333333349
ssI40
(dp7
g3
F0.37493999999999983
sg4
F0.57701991865349023
sg5
F0.88001066666666661
ssI10
(dp8
g3
F0.55707999999999991
sg4
F0.60687736036905016
sg5
F0.89282666666666688
ssI45
(dp9
g3
F0.27713999999999994
sg4
F0.53958769055983713
sg5
F0.8720866666666669
ssI15
(dp10
g3
F0.55691999999999997
sg4
F0.60930221347583224
sg5
F0.89330666666666647
ssI50
(dp11
g3
F0.27559999999999996
sg4
F0.5458359508619689
sg5
F0.87283600000000017
ssI20
(dp12
g3
F0.55633999999999995
sg4
F0.6130747194836178
sg5
F0.89402800000000016
ssI25
(dp13
g3
F0.55659999999999998
sg4
F0.61355068748087438
sg5
F0.89413466666666652
ssI30
(dp14
g3
F0.55626999999999993
sg4
F0.61414620203113113
sg5
F0.89423599999999981
ss.