(lp1
(dp2
S'split_num'
p3
I5
sS'recall'
p4
F0.40918000000000004
sS'precision'
p5
F0.46890996271724056
sS'accuracy'
p6
F0.85942800000000019
sa(dp7
g3
I10
sg4
F0.55726999999999993
sg5
F0.6065119466779535
sg6
F0.8927626666666667
sa(dp8
g3
I15
sg4
F0.55679999999999974
sg5
F0.60978855389390074
sg6
F0.89339866666666634
sa(dp9
g3
I20
sg4
F0.55653999999999992
sg5
F0.61305599674872868
sg6
F0.89403466666666642
sa(dp10
g3
I25
sg4
F0.55653999999999992
sg5
F0.61299609599721827
sg6
F0.89402266666666685
sa(dp11
g3
I30
sg4
F0.55664999999999998
sg5
F0.61301777647559419
sg6
F0.89403199999999994
sa(dp12
g3
I35
sg4
F0.55056999999999978
sg5
F0.61290694609776197
sg6
F0.89371199999999973
sa(dp13
g3
I40
sg4
F0.37515000000000009
sg5
F0.57670833301127478
sg6
F0.87997200000000031
sa(dp14
g3
I45
sg4
F0.27693999999999996
sg5
F0.54026349436595178
sg6
F0.87216799999999994
sa(dp15
g3
I50
sg4
F0.27540999999999999
sg5
F0.54513808544758857
sg6
F0.87274666666666689
sa.